; Function Attrs: mustprogress uwtable
define hidden noundef i64 @_ZN10ODDLParser12IOStreamBase4readEmRNSt7__cxx1112basic_stringIcSt11char_traitsIcESaIcEEE(ptr noundef nonnull readonly align 8 captures(none) dereferenceable(24) %0, i64 noundef %1, ptr noundef nonnull align 8 dereferenceable(32) %2) unnamed_addr #4 align 2 {
  %4 = getelementptr inbounds nuw i8, ptr %0, i64 16
  %5 = load ptr, ptr %4, align 8
  %6 = icmp eq ptr %5, null
  br i1 %6, label %11, label %7

7:                                                ; preds = %3
  tail call void @_ZNSt7__cxx1112basic_stringIcSt11char_traitsIcESaIcEE6resizeEmc(ptr noundef nonnull align 8 dereferenceable(32) %2, i64 noundef %1, i8 noundef signext 0)
  %8 = load ptr, ptr %2, align 8
  %9 = load ptr, ptr %4, align 8
  %10 = tail call i64 @fread(ptr noundef nonnull %8, i64 noundef 1, i64 noundef %1, ptr noundef %9)
  br label %11

11:                                               ; preds = %3, %7
  %.0 = phi i64 [ %10, %7 ], [ 0, %3 ]
  ret i64 %.0
}